ccopy_reg
_reconstructor
p1
(cxmppd.modules.db_fake
DictWatch
p2
c__builtin__
dict
p3
(dp4
S'127.0.0.1'
p5
g1
(g2
g3
(dp6
Va
g1
(g2
g3
(dp7
S'name'
p8
Va
sS'groups'
p9
g1
(g2
g3
(dtRp10
sS'roster'
p11
g1
(g2
g3
(dp12
Vams.127.0.0.1
p13
(dp14
S'state'
p15
S''
sS'subscription'
p16
S'none'
p17
sstRp18
sS'anon_allow'
p19
S'yes'
p20
sS'password'
p21
Vtajna
p22
sS'storage'
p23
g1
(g2
g3
(dtRp24
stRp25
sVsens1
p26
g1
(g2
g3
(dp27
g8
Vsens1
p28
sg9
g1
(g2
g3
(dtRp29
sg11
g1
(g2
g3
(dp30
Vams.127.0.0.1
p31
(dp32
g15
S''
sg16
g17
sstRp33
sg19
g20
sg21
Vtajna
p34
sg23
g1
(g2
g3
(dtRp35
stRp36
sS'ams'
p37
g1
(g2
g3
(dp38
S'name'
p39
S'AMS'
p40
sS'groups'
p41
g1
(g2
g3
(dtRp42
sS'roster'
p43
g1
(g2
g3
(dp44
S'idsserver@127.0.0.1'
p45
(dp46
S'state'
p47
S''
sS'subscription'
p48
S'from'
p49
ssS'mini2@127.0.0.1'
p50
(dp51
g47
S''
sg48
g49
ssS'sensor4@127.0.0.1'
p52
(dp53
g47
S''
sg48
S'none'
p54
ssS'mini1@127.0.0.1'
p55
(dp56
g47
S''
sg48
g49
ssS'trazi@127.0.0.1'
p57
(dp58
g47
S''
sg48
g54
ssS'sensor2@127.0.0.1'
p59
(dp60
g47
S''
sg48
g54
ssS'bu@127.0.0.1'
p61
(dp62
g47
S''
sg48
g54
ssS'sensor3@127.0.0.1'
p63
(dp64
g47
S''
sg48
g54
sstRp65
sS'anon_allow'
p66
S'yes'
p67
sS'password'
p68
S'EjvmgvRv'
p69
sS'storage'
p70
g1
(g2
g3
(dtRp71
stRp72
sS'df'
p73
g1
(g2
g3
(dp74
g39
S'DF'
p75
sg41
g1
(g2
g3
(dtRp76
sg43
g1
(g2
g3
(dtRp77
sg66
g67
sg68
S'FdqoAUlY'
p78
sg70
g1
(g2
g3
(dtRp79
stRp80
sVshmt
p81
g1
(g2
g3
(dp82
g8
Vshmt
p83
sg9
g1
(g2
g3
(dtRp84
sg11
g1
(g2
g3
(dp85
Vams.127.0.0.1
p86
(dp87
S'ask'
p88
S'subscribe'
p89
sg15
S''
sg16
g17
sstRp90
sg19
g20
sg21
Vtajna
p91
sg23
g1
(g2
g3
(dtRp92
stRp93
sVbu
p94
g1
(g2
g3
(dp95
g8
Vbu
p96
sg9
g1
(g2
g3
(dtRp97
sg11
g1
(g2
g3
(dp98
Vams.127.0.0.1
p99
(dp100
g15
S''
sg16
g54
sstRp101
sg19
g20
sg21
Vtajna
p102
sg23
g1
(g2
g3
(dtRp103
stRp104
sVtest_srv
p105
g1
(g2
g3
(dp106
g8
Vtest_srv
p107
sg9
g1
(g2
g3
(dtRp108
sg11
g1
(g2
g3
(dp109
Vams.127.0.0.1
p110
(dp111
g15
S''
sg16
g17
sstRp112
sg19
g20
sg21
Vtajna
p113
sg23
g1
(g2
g3
(dtRp114
stRp115
sVsensor1
p116
g1
(g2
g3
(dp117
g8
Vsensor1
p118
sg9
g1
(g2
g3
(dtRp119
sg11
g1
(g2
g3
(dp120
Vams.127.0.0.1
p121
(dp122
g15
S''
sg16
g17
sstRp123
sg19
g20
sg21
Vtajna
p124
sg23
g1
(g2
g3
(dtRp125
stRp126
sVsensor3
p127
g1
(g2
g3
(dp128
g39
Vsensor3
p129
sg41
g1
(g2
g3
(dtRp130
sg43
g1
(g2
g3
(dp131
Vams.127.0.0.1
p132
(dp133
S'ask'
p134
S'subscribe'
p135
sg47
S''
sg48
g54
sstRp136
sg66
g67
sg68
Vtajna
p137
sg70
g1
(g2
g3
(dtRp138
stRp139
sVsensor2
p140
g1
(g2
g3
(dp141
g8
Vsensor2
p142
sg9
g1
(g2
g3
(dtRp143
sg11
g1
(g2
g3
(dp144
Vams.127.0.0.1
p145
(dp146
g15
S''
sg16
g54
sstRp147
sg19
g20
sg21
Vtajna
p148
sg23
g1
(g2
g3
(dtRp149
stRp150
sVsensor4
p151
g1
(g2
g3
(dp152
g39
Vsensor4
p153
sg41
g1
(g2
g3
(dtRp154
sg43
g1
(g2
g3
(dp155
Vams.127.0.0.1
p156
(dp157
g47
S''
sg48
g54
sstRp158
sg66
g67
sg68
Vtajna
p159
sg70
g1
(g2
g3
(dtRp160
stRp161
sS'acc'
p162
g1
(g2
g3
(dp163
g39
S'ACC'
p164
sg41
g1
(g2
g3
(dtRp165
sg43
g1
(g2
g3
(dtRp166
sg66
g67
sg68
S'CezDrrOq'
p167
sg70
g1
(g2
g3
(dtRp168
stRp169
sVidsserver
p170
g1
(g2
g3
(dp171
g8
Vidsserver
p172
sg9
g1
(g2
g3
(dtRp173
sg11
g1
(g2
g3
(dp174
Vams.127.0.0.1
p175
(dp176
g15
S''
sg16
S'to'
p177
sstRp178
sg19
g20
sg21
Vsecret
p179
sg23
g1
(g2
g3
(dtRp180
stRp181
sVsensor22
p182
g1
(g2
g3
(dp183
g8
Vsensor22
p184
sg9
g1
(g2
g3
(dtRp185
sg11
g1
(g2
g3
(dp186
Vams.127.0.0.1
p187
(dp188
g15
S''
sg16
g17
sstRp189
sg19
g20
sg21
Vtajna
p190
sg23
g1
(g2
g3
(dtRp191
stRp192
sVtrazi
p193
g1
(g2
g3
(dp194
g39
Vtrazi
p195
sg41
g1
(g2
g3
(dtRp196
sg43
g1
(g2
g3
(dp197
Vams.127.0.0.1
p198
(dp199
g47
S''
sg48
g54
sstRp200
sg66
g67
sg68
Vtajna
p201
sg70
g1
(g2
g3
(dtRp202
stRp203
sVmini2
p204
g1
(g2
g3
(dp205
g8
Vmini2
p206
sg9
g1
(g2
g3
(dtRp207
sg11
g1
(g2
g3
(dp208
Vams.127.0.0.1
p209
(dp210
g15
S''
sg16
g177
sstRp211
sg19
g20
sg21
Vsecret
p212
sg23
g1
(g2
g3
(dtRp213
stRp214
sVmini1
p215
g1
(g2
g3
(dp216
g8
Vmini1
p217
sg9
g1
(g2
g3
(dtRp218
sg11
g1
(g2
g3
(dp219
Vams.127.0.0.1
p220
(dp221
g15
S''
sg16
g177
sstRp222
sg19
g20
sg21
Vsecret
p223
sg23
g1
(g2
g3
(dtRp224
stRp225
sS'__ir__'
p226
(dp227
g66
g67
sg68
S'test'
p228
sg70
(dp229
S'karma'
p230
(dp231
S'down'
p232
I307200
sS'tot_up'
p233
I0
sS'tot_down'
p234
I0
sS'up'
p235
I307200307200307200
sS'last_time'
p236
F0
sssg41
(dp237
sg43
(dp238
sstRp239
stRp240
.